target datalayout = "e-m:e-p270:32:32-p271:32:32-p272:64:64-i64:64-i128:128-f80:128-n8:16:32:64-S128"
target triple = "x86_64-pc-linux-gnu"

%struct.QMetaObject = type { %"struct.QMetaObject::Data" }
%"struct.QMetaObject::Data" = type { %"struct.QMetaObject::SuperData", ptr, ptr, ptr, ptr, ptr, ptr }
%"struct.QMetaObject::SuperData" = type { ptr }
%class.QModelIndex = type { i32, i32, i64, ptr }

@_ZN13ATapDataModel16staticMetaObjectE = external global %struct.QMetaObject, align 8

; Function Attrs: mustprogress uwtable
define linkonce_odr noundef ptr @_ZNK11QMetaObject4castEP7QObject(ptr noundef nonnull align 8 dereferenceable(56) %0, ptr noundef %1) #0 comdat align 2 {
  %3 = alloca ptr, align 8
  %4 = alloca ptr, align 8
  store ptr %0, ptr %3, align 8
  store ptr %1, ptr %4, align 8
  %5 = load ptr, ptr %3, align 8
  %6 = load ptr, ptr %4, align 8
  %7 = call noundef ptr @_ZNK11QMetaObject4castEPK7QObject(ptr noundef nonnull align 8 dereferenceable(56) %5, ptr noundef %6)
  ret ptr %7
}

; Function Attrs: mustprogress nounwind uwtable
define linkonce_odr noundef i32 @_ZNK11QModelIndex6columnEv(ptr noundef nonnull align 8 dereferenceable(24) %0) #2 comdat align 2 {
  %2 = alloca ptr, align 8
  store ptr %0, ptr %2, align 8
  %3 = load ptr, ptr %2, align 8
  %4 = getelementptr inbounds %class.QModelIndex, ptr %3, i32 0, i32 1
  %5 = load i32, ptr %4, align 4
  ret i32 %5
}

; Function Attrs: mustprogress nounwind uwtable
define linkonce_odr void @_ZN11QModelIndexC2Ev(ptr noundef nonnull align 8 dereferenceable(24) %0) unnamed_addr #2 comdat align 2 {
  %2 = alloca ptr, align 8
  store ptr %0, ptr %2, align 8
  %3 = load ptr, ptr %2, align 8
  %4 = getelementptr inbounds %class.QModelIndex, ptr %3, i32 0, i32 0
  store i32 -1, ptr %4, align 8
  %5 = getelementptr inbounds %class.QModelIndex, ptr %3, i32 0, i32 1
  store i32 -1, ptr %5, align 4
  %6 = getelementptr inbounds %class.QModelIndex, ptr %3, i32 0, i32 2
  store i64 0, ptr %6, align 8
  %7 = getelementptr inbounds %class.QModelIndex, ptr %3, i32 0, i32 3
  store ptr null, ptr %7, align 8
  ret void
}

; Function Attrs: mustprogress uwtable
define linkonce_odr noundef ptr @_Z12qobject_castIP13ATapDataModelET_P7QObject(ptr noundef %0) #0 comdat {
  %2 = alloca ptr, align 8
  store ptr %0, ptr %2, align 8
  %3 = load ptr, ptr %2, align 8
  %4 = call noundef ptr @_ZNK11QMetaObject4castEP7QObject(ptr noundef nonnull align 8 dereferenceable(56) @_ZN13ATapDataModel16staticMetaObjectE, ptr noundef %3)
  ret ptr %4
}

; Function Attrs: mustprogress uwtable
define noundef i32 @_ZNK22TrafficDataFilterProxy17mapToSourceColumnEi(ptr noundef nonnull align 8 dereferenceable(72) %0, i32 noundef %1) #0 align 2 {
  %3 = alloca i32, align 4
  %4 = alloca ptr, align 8
  %5 = alloca i32, align 4
  %6 = alloca ptr, align 8
  %7 = alloca %class.QModelIndex, align 8
  %8 = alloca %class.QModelIndex, align 8
  %9 = alloca %class.QModelIndex, align 8
  %10 = alloca %class.QModelIndex, align 8
  %11 = alloca i32, align 4
  %12 = alloca i32, align 4
  %13 = alloca %class.QModelIndex, align 8
  %14 = alloca %class.QModelIndex, align 8
  store ptr %0, ptr %4, align 8
  store i32 %1, ptr %5, align 4
  %15 = load ptr, ptr %4, align 8
  %16 = call noundef ptr @_ZNK19QAbstractProxyModel11sourceModelEv(ptr noundef nonnull align 8 dereferenceable(16) %15)
  %17 = call noundef ptr @_Z12qobject_castIP13ATapDataModelET_P7QObject(ptr noundef %16)
  store ptr %17, ptr %6, align 8
  %18 = load ptr, ptr %6, align 8
  %19 = icmp ne ptr %18, null
  br i1 %19, label %20, label %23

20:                                               ; preds = %2
  %21 = load i32, ptr %5, align 4
  %22 = icmp eq i32 %21, -1
  br i1 %22, label %23, label %25

23:                                               ; preds = %20, %2
  %24 = load i32, ptr %5, align 4
  store i32 %24, ptr %3, align 4
  br label %68

25:                                               ; preds = %20
  call void @_ZN11QModelIndexC2Ev(ptr noundef nonnull align 8 dereferenceable(24) %7) #9
  %26 = load ptr, ptr %15, align 8
  %27 = getelementptr inbounds ptr, ptr %26, i64 15
  %28 = load ptr, ptr %27, align 8
  %29 = call noundef i32 %28(ptr noundef nonnull align 8 dereferenceable(16) %15, ptr noundef nonnull align 8 dereferenceable(24) %7)
  %30 = icmp sgt i32 %29, 0
  br i1 %30, label %31, label %40

31:                                               ; preds = %25
  %32 = load i32, ptr %5, align 4
  call void @_ZN11QModelIndexC2Ev(ptr noundef nonnull align 8 dereferenceable(24) %10) #9
  %33 = load ptr, ptr %15, align 8
  %34 = getelementptr inbounds ptr, ptr %33, i64 12
  %35 = load ptr, ptr %34, align 8
  call void %35(ptr dead_on_unwind writable sret(%class.QModelIndex) align 8 %9, ptr noundef nonnull align 8 dereferenceable(16) %15, i32 noundef 0, i32 noundef %32, ptr noundef nonnull align 8 dereferenceable(24) %10)
  %36 = load ptr, ptr %15, align 8
  %37 = getelementptr inbounds ptr, ptr %36, i64 50
  %38 = load ptr, ptr %37, align 8
  call void %38(ptr dead_on_unwind writable sret(%class.QModelIndex) align 8 %8, ptr noundef nonnull align 8 dereferenceable(16) %15, ptr noundef nonnull align 8 dereferenceable(24) %9)
  %39 = call noundef i32 @_ZNK11QModelIndex6columnEv(ptr noundef nonnull align 8 dereferenceable(24) %8) #9
  store i32 %39, ptr %3, align 4
  br label %68

40:                                               ; preds = %25
  store i32 0, ptr %11, align 4
  store i32 0, ptr %12, align 4
  br label %41

41:                                               ; preds = %64, %40
  %42 = load i32, ptr %12, align 4
  %43 = load ptr, ptr %6, align 8
  call void @_ZN11QModelIndexC2Ev(ptr noundef nonnull align 8 dereferenceable(24) %13) #9
  %44 = load ptr, ptr %43, align 8
  %45 = getelementptr inbounds ptr, ptr %44, i64 16
  %46 = load ptr, ptr %45, align 8
  %47 = call noundef i32 %46(ptr noundef nonnull align 8 dereferenceable(120) %43, ptr noundef nonnull align 8 dereferenceable(24) %13)
  %48 = icmp slt i32 %42, %47
  br i1 %48, label %49, label %67

49:                                               ; preds = %41
  %50 = load i32, ptr %12, align 4
  call void @_ZN11QModelIndexC2Ev(ptr noundef nonnull align 8 dereferenceable(24) %14) #9
  %51 = load ptr, ptr %15, align 8
  %52 = getelementptr inbounds ptr, ptr %51, i64 55
  %53 = load ptr, ptr %52, align 8
  %54 = call noundef zeroext i1 %53(ptr noundef nonnull align 8 dereferenceable(72) %15, i32 noundef %50, ptr noundef nonnull align 8 dereferenceable(24) %14)
  br i1 %54, label %55, label %63

55:                                               ; preds = %49
  %56 = load i32, ptr %11, align 4
  %57 = add i32 %56, 1
  store i32 %57, ptr %11, align 4
  %58 = load i32, ptr %5, align 4
  %59 = icmp eq i32 %56, %58
  br i1 %59, label %60, label %62

60:                                               ; preds = %55
  %61 = load i32, ptr %12, align 4
  store i32 %61, ptr %3, align 4
  br label %68

62:                                               ; preds = %55
  br label %63

63:                                               ; preds = %62, %49
  br label %64

64:                                               ; preds = %63
  %65 = load i32, ptr %12, align 4
  %66 = add i32 %65, 1
  store i32 %66, ptr %12, align 4
  br label %41, !llvm.loop !11

67:                                               ; preds = %41
  store i32 -1, ptr %3, align 4
  br label %68

68:                                               ; preds = %67, %60, %31, %23
  %69 = load i32, ptr %3, align 4
  ret i32 %69
}