; Function Attrs: mustprogress uwtable
define noundef i32 @_ZNK22TrafficDataFilterProxy17mapToSourceColumnEi(ptr noundef nonnull align 8 dereferenceable(72) %0, i32 noundef %1) local_unnamed_addr #0 align 2 {
  %3 = alloca %class.QModelIndex, align 8
  %4 = alloca %class.QModelIndex, align 8
  %5 = alloca %class.QModelIndex, align 8
  %6 = alloca %class.QModelIndex, align 8
  %7 = alloca %class.QModelIndex, align 8
  %8 = alloca %class.QModelIndex, align 8
  %9 = tail call noundef ptr @_ZNK19QAbstractProxyModel11sourceModelEv(ptr noundef nonnull align 8 dereferenceable(16) %0)
  %10 = tail call noundef ptr @_ZNK11QMetaObject4castEPK7QObject(ptr noundef nonnull align 8 dereferenceable(56) @_ZN13ATapDataModel16staticMetaObjectE, ptr noundef %9)
  %11 = icmp eq ptr %10, null
  %12 = icmp eq i32 %1, -1
  %or.cond = or i1 %12, %11
  br i1 %or.cond, label %.loopexit, label %13

13:                                               ; preds = %2
  store i32 -1, ptr %3, align 8
  %14 = getelementptr inbounds i8, ptr %3, i64 4
  store i32 -1, ptr %14, align 4
  %15 = getelementptr inbounds i8, ptr %3, i64 8
  call void @llvm.memset.p0.i64(ptr noundef nonnull align 8 dereferenceable(16) %15, i8 0, i64 16, i1 false)
  %16 = load ptr, ptr %0, align 8
  %17 = getelementptr inbounds i8, ptr %16, i64 120
  %18 = load ptr, ptr %17, align 8
  %19 = call noundef i32 %18(ptr noundef nonnull align 8 dereferenceable(16) %0, ptr noundef nonnull align 8 dereferenceable(24) %3)
  %20 = icmp sgt i32 %19, 0
  br i1 %20, label %30, label %.preheader

.preheader:                                       ; preds = %13
  %21 = getelementptr inbounds i8, ptr %7, i64 4
  %22 = getelementptr inbounds i8, ptr %7, i64 8
  store i32 -1, ptr %7, align 8
  store i32 -1, ptr %21, align 4
  call void @llvm.memset.p0.i64(ptr noundef nonnull align 8 dereferenceable(16) %22, i8 0, i64 16, i1 false)
  %23 = load ptr, ptr %10, align 8
  %24 = getelementptr inbounds i8, ptr %23, i64 128
  %25 = load ptr, ptr %24, align 8
  %26 = call noundef i32 %25(ptr noundef nonnull align 8 dereferenceable(120) %10, ptr noundef nonnull align 8 dereferenceable(24) %7)
  %27 = icmp sgt i32 %26, 0
  br i1 %27, label %.lr.ph, label %.loopexit

.lr.ph:                                           ; preds = %.preheader
  %28 = getelementptr inbounds i8, ptr %8, i64 4
  %29 = getelementptr inbounds i8, ptr %8, i64 8
  br label %41

30:                                               ; preds = %13
  store i32 -1, ptr %6, align 8
  %31 = getelementptr inbounds i8, ptr %6, i64 4
  store i32 -1, ptr %31, align 4
  %32 = getelementptr inbounds i8, ptr %6, i64 8
  call void @llvm.memset.p0.i64(ptr noundef nonnull align 8 dereferenceable(16) %32, i8 0, i64 16, i1 false)
  %33 = load ptr, ptr %0, align 8
  %34 = getelementptr inbounds i8, ptr %33, i64 96
  %35 = load ptr, ptr %34, align 8
  call void %35(ptr dead_on_unwind nonnull writable sret(%class.QModelIndex) align 8 %5, ptr noundef nonnull align 8 dereferenceable(16) %0, i32 noundef 0, i32 noundef %1, ptr noundef nonnull align 8 dereferenceable(24) %6)
  %36 = load ptr, ptr %0, align 8
  %37 = getelementptr inbounds i8, ptr %36, i64 400
  %38 = load ptr, ptr %37, align 8
  call void %38(ptr dead_on_unwind nonnull writable sret(%class.QModelIndex) align 8 %4, ptr noundef nonnull align 8 dereferenceable(16) %0, ptr noundef nonnull align 8 dereferenceable(24) %5)
  %39 = getelementptr inbounds i8, ptr %4, i64 4
  %40 = load i32, ptr %39, align 4
  br label %.loopexit

41:                                               ; preds = %.lr.ph, %49
  %.018 = phi i32 [ 0, %.lr.ph ], [ %50, %49 ]
  %.01317 = phi i32 [ 0, %.lr.ph ], [ %.1, %49 ]
  store i32 -1, ptr %8, align 8
  store i32 -1, ptr %28, align 4
  call void @llvm.memset.p0.i64(ptr noundef nonnull align 8 dereferenceable(16) %29, i8 0, i64 16, i1 false)
  %42 = load ptr, ptr %0, align 8
  %43 = getelementptr inbounds i8, ptr %42, i64 440
  %44 = load ptr, ptr %43, align 8
  %45 = call noundef zeroext i1 %44(ptr noundef nonnull align 8 dereferenceable(72) %0, i32 noundef %.018, ptr noundef nonnull align 8 dereferenceable(24) %8)
  br i1 %45, label %46, label %49

46:                                               ; preds = %41
  %47 = add i32 %.01317, 1
  %48 = icmp eq i32 %.01317, %1
  br i1 %48, label %.loopexit, label %49

49:                                               ; preds = %41, %46
  %.1 = phi i32 [ %47, %46 ], [ %.01317, %41 ]
  %50 = add nuw nsw i32 %.018, 1
  store i32 -1, ptr %7, align 8
  store i32 -1, ptr %21, align 4
  call void @llvm.memset.p0.i64(ptr noundef nonnull align 8 dereferenceable(16) %22, i8 0, i64 16, i1 false)
  %51 = load ptr, ptr %10, align 8
  %52 = getelementptr inbounds i8, ptr %51, i64 128
  %53 = load ptr, ptr %52, align 8
  %54 = call noundef i32 %53(ptr noundef nonnull align 8 dereferenceable(120) %10, ptr noundef nonnull align 8 dereferenceable(24) %7)
  %55 = icmp slt i32 %50, %54
  br i1 %55, label %41, label %.loopexit, !llvm.loop !40

.loopexit:                                        ; preds = %46, %49, %.preheader, %2, %30
  %.014 = phi i32 [ %40, %30 ], [ %1, %2 ], [ -1, %.preheader ], [ %.018, %46 ], [ -1, %49 ]
  ret i32 %.014
}